; Function Attrs: nounwind uwtable
define dso_local i32 @data_dict_for_each_const(ptr noundef %0, ptr noundef readonly captures(none) %1, ptr noundef %2) local_unnamed_addr #0 {
  %.not = icmp eq ptr %0, null
  br i1 %.not, label %.loopexit, label %.preheader.i

.preheader.i:                                     ; preds = %3
  %4 = getelementptr inbounds nuw i8, ptr %0, i64 4
  %5 = load i32, ptr %4, align 4
  br label %7

6:                                                ; preds = %7
  %indvars.iv.next.i = add nuw nsw i64 %indvars.iv.i, 1
  %exitcond.i = icmp eq i64 %indvars.iv.next.i, 8
  br i1 %exitcond.i, label %data_get_type.exit.thread, label %7, !llvm.loop !11

7:                                                ; preds = %6, %.preheader.i
  %indvars.iv.i = phi i64 [ 0, %.preheader.i ], [ %indvars.iv.next.i, %6 ]
  %8 = getelementptr inbounds nuw [8 x %struct.anon], ptr @type_map, i64 0, i64 %indvars.iv.i
  %9 = getelementptr inbounds nuw i8, ptr %8, i64 4
  %10 = load i32, ptr %9, align 4
  %11 = icmp eq i32 %10, %5
  br i1 %11, label %data_get_type.exit, label %6

data_get_type.exit:                               ; preds = %7
  %12 = load i32, ptr %8, align 8
  %.not23 = icmp eq i32 %12, 3
  br i1 %.not23, label %14, label %data_get_type.exit.thread

data_get_type.exit.thread:                        ; preds = %6, %data_get_type.exit
  %13 = tail call i32 (ptr, ...) @error(ptr noundef nonnull @.str.36, ptr noundef nonnull @__func__.data_dict_for_each_const, ptr noundef nonnull %0) #16
  br label %.loopexit

14:                                               ; preds = %data_get_type.exit
  %15 = getelementptr inbounds nuw i8, ptr %0, i64 8
  %16 = load ptr, ptr %15, align 8
  %17 = getelementptr inbounds nuw i8, ptr %16, i64 16
  %18 = load ptr, ptr %17, align 8
  %.not2435 = icmp eq ptr %18, null
  br i1 %.not2435, label %.loopexit, label %.lr.ph

.lr.ph:                                           ; preds = %14, %.thread
  %.01837 = phi ptr [ %30, %.thread ], [ %18, %14 ]
  %.01936 = phi i32 [ %24, %.thread ], [ 0, %14 ]
  %19 = getelementptr inbounds nuw i8, ptr %.01837, i64 24
  %20 = load ptr, ptr %19, align 8
  %21 = getelementptr inbounds nuw i8, ptr %.01837, i64 16
  %22 = load ptr, ptr %21, align 8
  %23 = tail call i32 %1(ptr noundef %20, ptr noundef %22, ptr noundef %2) #16
  %24 = add nuw nsw i32 %.01936, 1
  switch i32 %23, label %28 [
    i32 1, label %.thread
    i32 2, label %25
    i32 4, label %26
    i32 3, label %.loopexit
  ]

25:                                               ; preds = %.lr.ph
  tail call void (ptr, ...) @fatal_abort(ptr noundef nonnull @.str.33, ptr noundef nonnull @__func__.data_dict_for_each_const) #18
  unreachable

26:                                               ; preds = %.lr.ph
  %27 = xor i32 %.01936, -1
  br label %.loopexit

28:                                               ; preds = %.lr.ph
  tail call void (ptr, ...) @fatal_abort(ptr noundef nonnull @.str.34, ptr noundef nonnull @__func__.data_dict_for_each_const) #18
  unreachable

.thread:                                          ; preds = %.lr.ph
  %29 = getelementptr inbounds nuw i8, ptr %.01837, i64 8
  %30 = load ptr, ptr %29, align 8
  %.not24 = icmp eq ptr %30, null
  br i1 %.not24, label %.loopexit, label %.lr.ph, !llvm.loop !26

.loopexit:                                        ; preds = %.lr.ph, %.thread, %26, %14, %3, %data_get_type.exit.thread
  %.0 = phi i32 [ -1, %data_get_type.exit.thread ], [ 0, %3 ], [ 0, %14 ], [ %27, %26 ], [ %24, %.thread ], [ %24, %.lr.ph ]
  ret i32 %.0
}